; Function Attrs: mustprogress uwtable
define void @_ZNK11OpenImageIO6v3_1_011ColorConfig18getColorSpaceNamesB5cxx11Ev(ptr dead_on_unwind noalias nonnull writable sret(%"class.std::vector.34") align 8 initializes((0, 24)) %0, ptr noundef nonnull readonly align 8 captures(none) dereferenceable(8) %1) local_unnamed_addr #5 align 2 personality ptr @__gxx_personality_v0 {
  %3 = alloca ptr, align 8
  tail call void @llvm.memset.p0.i64(ptr noundef nonnull align 8 dereferenceable(24) %0, i8 0, i64 24, i1 false)
  %4 = load ptr, ptr %1, align 8, !tbaa !140
  %5 = getelementptr inbounds nuw i8, ptr %4, i64 32
  %6 = getelementptr inbounds nuw i8, ptr %4, i64 40
  %7 = load ptr, ptr %6, align 8, !tbaa !55
  %8 = load ptr, ptr %5, align 8, !tbaa !182
  %9 = ptrtoint ptr %7 to i64
  %10 = ptrtoint ptr %8 to i64
  %11 = sub i64 %9, %10
  %12 = sdiv exact i64 %11, 96
  %sext = shl i64 %12, 32
  %13 = ashr exact i64 %sext, 32
  invoke void @_ZNSt6vectorINSt7__cxx1112basic_stringIcSt11char_traitsIcESaIcEEESaIS5_EE7reserveEm(ptr noundef nonnull align 8 dereferenceable(24) %0, i64 noundef %13)
          to label %.preheader unwind label %16

.preheader:                                       ; preds = %2
  %14 = trunc i64 %12 to i32
  %15 = icmp sgt i32 %14, 0
  br i1 %15, label %.lr.ph.preheader, label %._crit_edge

.lr.ph.preheader:                                 ; preds = %.preheader
  %wide.trip.count = and i64 %12, 2147483647
  br label %.lr.ph

16:                                               ; preds = %2
  %17 = landingpad { ptr, i32 }
          cleanup
  br label %27

.lr.ph:                                           ; preds = %.lr.ph.preheader, %24
  %indvars.iv = phi i64 [ 0, %.lr.ph.preheader ], [ %indvars.iv.next, %24 ]
  call void @llvm.lifetime.start.p0(i64 8, ptr nonnull %3) #34
  %18 = load ptr, ptr %1, align 8, !tbaa !140
  %19 = getelementptr inbounds nuw i8, ptr %18, i64 32
  %20 = load ptr, ptr %19, align 8, !tbaa !182
  %21 = getelementptr inbounds nuw %"struct.OpenImageIO::v3_1_0::CSInfo", ptr %20, i64 %indvars.iv
  %22 = load ptr, ptr %21, align 8, !tbaa !18
  store ptr %22, ptr %3, align 8, !tbaa !106
  %23 = invoke noundef nonnull align 8 dereferenceable(32) ptr @_ZNSt6vectorINSt7__cxx1112basic_stringIcSt11char_traitsIcESaIcEEESaIS5_EE12emplace_backIJPKcEEERS5_DpOT_(ptr noundef nonnull align 8 dereferenceable(24) %0, ptr noundef nonnull align 8 dereferenceable(8) %3)
          to label %24 unwind label %25

24:                                               ; preds = %.lr.ph
  call void @llvm.lifetime.end.p0(i64 8, ptr nonnull %3) #34
  %indvars.iv.next = add nuw nsw i64 %indvars.iv, 1
  %exitcond.not = icmp eq i64 %indvars.iv.next, %wide.trip.count
  br i1 %exitcond.not, label %._crit_edge, label %.lr.ph, !llvm.loop !191

25:                                               ; preds = %.lr.ph
  %26 = landingpad { ptr, i32 }
          cleanup
  call void @llvm.lifetime.end.p0(i64 8, ptr nonnull %3) #34
  br label %27

27:                                               ; preds = %25, %16
  %.pn = phi { ptr, i32 } [ %26, %25 ], [ %17, %16 ]
  call void @_ZNSt6vectorINSt7__cxx1112basic_stringIcSt11char_traitsIcESaIcEEESaIS5_EED2Ev(ptr noundef nonnull align 8 dereferenceable(24) %0) #34
  resume { ptr, i32 } %.pn

._crit_edge:                                      ; preds = %24, %.preheader
  ret void
}